target datalayout = "e-m:e-p270:32:32-p271:32:32-p272:64:64-i64:64-i128:128-f80:128-n8:16:32:64-S128"
target triple = "x86_64-unknown-linux-gnu"

%"struct.node::AssertionInfo" = type { ptr, ptr, ptr }
%"class.node::tracing::NodeTraceWriter" = type <{ %"class.node::tracing::AsyncTraceWriter", ptr, %struct.uv_async_s, %struct.uv_async_s, %"class.node::MutexBase", %"class.node::MutexBase", %"class.node::ConditionVariableBase", %"class.node::ConditionVariableBase", i32, [4 x i8], %struct.uv_fs_s, %"class.std::queue", i32, i32, i32, i32, %"class.std::__cxx11::basic_string", %"class.std::__cxx11::basic_ostringstream", %"class.std::unique_ptr", i8, [7 x i8] }>
%"class.node::tracing::AsyncTraceWriter" = type { ptr }
%struct.uv_async_s = type { ptr, ptr, i32, ptr, %struct.uv__queue, %union.anon, ptr, i32, ptr, %struct.uv__queue, i32 }
%union.anon = type { [4 x ptr] }
%struct.uv__queue = type { ptr, ptr }
%"class.node::MutexBase" = type { %union.pthread_mutex_t }
%union.pthread_mutex_t = type { %struct.__pthread_mutex_s }
%struct.__pthread_mutex_s = type { i32, i32, i32, i32, i32, i16, i16, %struct.__pthread_internal_list }
%struct.__pthread_internal_list = type { ptr, ptr }
%"class.node::ConditionVariableBase" = type { %union.pthread_cond_t }
%union.pthread_cond_t = type { %struct.__pthread_cond_s }
%struct.__pthread_cond_s = type { %union.__atomic_wide_counter, %union.__atomic_wide_counter, [2 x i32], [2 x i32], i32, i32, [2 x i32] }
%union.__atomic_wide_counter = type { i64 }
%struct.uv_fs_s = type { ptr, i32, [6 x ptr], i32, ptr, ptr, i64, ptr, ptr, %struct.uv_stat_t, ptr, i32, i32, i32, i32, ptr, i64, i32, i32, double, double, %struct.uv__work, [4 x %struct.uv_buf_t] }
%struct.uv_stat_t = type { i64, i64, i64, i64, i64, i64, i64, i64, i64, i64, i64, i64, %struct.uv_timespec_t, %struct.uv_timespec_t, %struct.uv_timespec_t, %struct.uv_timespec_t }
%struct.uv_timespec_t = type { i64, i64 }
%struct.uv__work = type { ptr, ptr, ptr, %struct.uv__queue }
%struct.uv_buf_t = type { ptr, i64 }
%"class.std::queue" = type { %"class.std::deque" }
%"class.std::deque" = type { %"class.std::_Deque_base" }
%"class.std::_Deque_base" = type { %"struct.std::_Deque_base<node::tracing::NodeTraceWriter::WriteRequest, std::allocator<node::tracing::NodeTraceWriter::WriteRequest>>::_Deque_impl" }
%"struct.std::_Deque_base<node::tracing::NodeTraceWriter::WriteRequest, std::allocator<node::tracing::NodeTraceWriter::WriteRequest>>::_Deque_impl" = type { %"struct.std::_Deque_base<node::tracing::NodeTraceWriter::WriteRequest, std::allocator<node::tracing::NodeTraceWriter::WriteRequest>>::_Deque_impl_data" }
%"struct.std::_Deque_base<node::tracing::NodeTraceWriter::WriteRequest, std::allocator<node::tracing::NodeTraceWriter::WriteRequest>>::_Deque_impl_data" = type { ptr, i64, %"struct.std::_Deque_iterator", %"struct.std::_Deque_iterator" }
%"struct.std::_Deque_iterator" = type { ptr, ptr, ptr, ptr }
%"class.std::__cxx11::basic_string" = type { %"struct.std::__cxx11::basic_string<char>::_Alloc_hider", i64, %union.anon.3 }
%"struct.std::__cxx11::basic_string<char>::_Alloc_hider" = type { ptr }
%union.anon.3 = type { i64, [8 x i8] }
%"class.std::__cxx11::basic_ostringstream" = type { %"class.std::basic_ostream.base", %"class.std::__cxx11::basic_stringbuf", %"class.std::basic_ios" }
%"class.std::basic_ostream.base" = type { ptr }
%"class.std::__cxx11::basic_stringbuf" = type { %"class.std::basic_streambuf", i32, %"class.std::__cxx11::basic_string" }
%"class.std::basic_streambuf" = type { ptr, ptr, ptr, ptr, ptr, ptr, ptr, %"class.std::locale" }
%"class.std::locale" = type { ptr }
%"class.std::basic_ios" = type { %"class.std::ios_base", ptr, i8, i8, ptr, ptr, ptr, ptr }
%"class.std::ios_base" = type { ptr, i64, i64, i32, i32, i32, ptr, %"struct.std::ios_base::_Words", [8 x %"struct.std::ios_base::_Words"], i32, ptr, %"class.std::locale" }
%"struct.std::ios_base::_Words" = type { ptr, i64 }
%"class.std::unique_ptr" = type { %"struct.std::__uniq_ptr_data" }
%"struct.std::__uniq_ptr_data" = type { %"class.std::__uniq_ptr_impl" }
%"class.std::__uniq_ptr_impl" = type { %"class.std::tuple" }
%"class.std::tuple" = type { %"struct.std::_Tuple_impl" }
%"struct.std::_Tuple_impl" = type { %"struct.std::_Head_base.5" }
%"struct.std::_Head_base.5" = type { ptr }
%class.anon.6 = type { i8 }

@_ZZN4node7tracing15NodeTraceWriter10StartWriteE8uv_buf_tE4args = internal constant %"struct.node::AssertionInfo" { ptr @.str.18, ptr @.str.4, ptr @.str.19 }, align 8

; Function Attrs: mustprogress nounwind uwtable
define internal noundef ptr @"_ZZN4node7tracing15NodeTraceWriter10StartWriteE8uv_buf_tENK3$_0cvPFvP7uv_fs_sEEv"(ptr noundef nonnull align 1 dereferenceable(1) %this) #0 align 2 {
entry:
  %this.addr = alloca ptr, align 8
  store ptr %this, ptr %this.addr, align 8
  ret ptr @"_ZZN4node7tracing15NodeTraceWriter10StartWriteE8uv_buf_tEN3$_08__invokeEP7uv_fs_s"
}

; Function Attrs: mustprogress nounwind uwtable
define dso_local void @_ZN4node7tracing15NodeTraceWriter10StartWriteE8uv_buf_t(ptr noundef nonnull align 8 dereferenceable(1409) %this, ptr %buf.coerce0, i64 %buf.coerce1) #0 align 2 {
entry:
  %buf = alloca %struct.uv_buf_t, align 8
  %this.addr = alloca ptr, align 8
  %err = alloca i32, align 4
  %ref.tmp = alloca %class.anon.6, align 1
  %0 = getelementptr inbounds { ptr, i64 }, ptr %buf, i32 0, i32 0
  store ptr %buf.coerce0, ptr %0, align 8
  %1 = getelementptr inbounds { ptr, i64 }, ptr %buf, i32 0, i32 1
  store i64 %buf.coerce1, ptr %1, align 8
  store ptr %this, ptr %this.addr, align 8
  %this1 = load ptr, ptr %this.addr, align 8
  %tracing_loop_ = getelementptr inbounds %"class.node::tracing::NodeTraceWriter", ptr %this1, i32 0, i32 1
  %2 = load ptr, ptr %tracing_loop_, align 8
  %write_req_ = getelementptr inbounds %"class.node::tracing::NodeTraceWriter", ptr %this1, i32 0, i32 10
  %fd_ = getelementptr inbounds %"class.node::tracing::NodeTraceWriter", ptr %this1, i32 0, i32 8
  %3 = load i32, ptr %fd_, align 8
  %call = call noundef ptr @"_ZZN4node7tracing15NodeTraceWriter10StartWriteE8uv_buf_tENK3$_0cvPFvP7uv_fs_sEEv"(ptr noundef nonnull align 1 dereferenceable(1) %ref.tmp) #10
  %call2 = call i32 @uv_fs_write(ptr noundef %2, ptr noundef %write_req_, i32 noundef %3, ptr noundef %buf, i32 noundef 1, i64 noundef -1, ptr noundef %call)
  store i32 %call2, ptr %err, align 4
  br label %do.body

do.body:                                          ; preds = %entry
  %4 = load i32, ptr %err, align 4
  %cmp = icmp eq i32 %4, 0
  %lnot = xor i1 %cmp, true
  %lnot3 = xor i1 %lnot, true
  %lnot4 = xor i1 %lnot3, true
  br i1 %lnot4, label %if.then, label %if.end

if.then:                                          ; preds = %do.body
  br label %do.body5

do.body5:                                         ; preds = %if.then
  call void @_ZN4node6AssertERKNS_13AssertionInfoE(ptr noundef nonnull align 8 dereferenceable(24) @_ZZN4node7tracing15NodeTraceWriter10StartWriteE8uv_buf_tE4args)
  call void @abort() #11
  unreachable

do.end:                                           ; No predecessors!
  br label %if.end

if.end:                                           ; preds = %do.end, %do.body
  br label %do.end6

do.end6:                                          ; preds = %if.end
  ret void
}