; Function Attrs: mustprogress nounwind uwtable
define dso_local void @_ZN4node7tracing15NodeTraceWriter10StartWriteE8uv_buf_t(ptr noundef nonnull align 8 dereferenceable(1409) %this, ptr %buf.coerce0, i64 %buf.coerce1) local_unnamed_addr #0 align 2 {
entry:
  %buf = alloca %struct.uv_buf_t, align 8
  store ptr %buf.coerce0, ptr %buf, align 8
  %0 = getelementptr inbounds i8, ptr %buf, i64 8
  store i64 %buf.coerce1, ptr %0, align 8
  %tracing_loop_ = getelementptr inbounds i8, ptr %this, i64 8
  %1 = load ptr, ptr %tracing_loop_, align 8
  %write_req_ = getelementptr inbounds i8, ptr %this, i64 456
  %fd_ = getelementptr inbounds i8, ptr %this, i64 448
  %2 = load i32, ptr %fd_, align 8
  %call2 = call i32 @uv_fs_write(ptr noundef %1, ptr noundef nonnull %write_req_, i32 noundef %2, ptr noundef nonnull %buf, i32 noundef 1, i64 noundef -1, ptr noundef nonnull @"_ZZN4node7tracing15NodeTraceWriter10StartWriteE8uv_buf_tEN3$_08__invokeEP7uv_fs_s") #12
  %cmp.not = icmp eq i32 %call2, 0
  br i1 %cmp.not, label %do.end6, label %do.body5

do.body5:                                         ; preds = %entry
  call void @_ZN4node6AssertERKNS_13AssertionInfoE(ptr noundef nonnull align 8 dereferenceable(24) @_ZZN4node7tracing15NodeTraceWriter10StartWriteE8uv_buf_tE4args) #12
  call void @abort() #13
  unreachable

do.end6:                                          ; preds = %entry
  ret void
}